; Function Attrs: nounwind uwtable
define internal range(i32 -1, 2) i32 @_sort_by_prio(ptr noundef readonly captures(none) %0, ptr noundef readonly captures(none) %1) #0 {
  %3 = alloca i32, align 4
  %4 = alloca i32, align 4
  call void @llvm.lifetime.start.p0(i64 4, ptr nonnull %3) #8
  call void @llvm.lifetime.start.p0(i64 4, ptr nonnull %4) #8
  %5 = load ptr, ptr %0, align 8
  %6 = load ptr, ptr %1, align 8
  %7 = load ptr, ptr getelementptr inbounds nuw (i8, ptr @ops, i64 16), align 8
  %8 = call i32 %7(ptr noundef %5, i32 noundef 2, ptr noundef nonnull %3) #8
  %9 = load ptr, ptr getelementptr inbounds nuw (i8, ptr @ops, i64 16), align 8
  %10 = call i32 %9(ptr noundef %6, i32 noundef 2, ptr noundef nonnull %4) #8
  %11 = load i32, ptr %3, align 4
  %12 = load i32, ptr %4, align 4
  %.0 = call i32 @llvm.ucmp.i32.i32(i32 %11, i32 %12)
  call void @llvm.lifetime.end.p0(i64 4, ptr nonnull %4) #8
  call void @llvm.lifetime.end.p0(i64 4, ptr nonnull %3) #8
  ret i32 %.0
}